Certificate:
    Data:
        Version: 3 (0x2)
        Serial Number:
            f8:f4:18:1c:06:ef:38:e4
    Signature Algorithm: sha1WithRSAEncryption
        Issuer: C=AU, ST=!example, O=!example, OU=!example, CN=example.com
        Validity
            Not Before: Jan  7 05:00:36 2014 GMT
            Not After : May 10 05:00:36 3013 GMT
        Subject: C=AU, ST=!example, L=!example, O=!example, OU=!example, CN=example.com
        Subject Public Key Info:
            Public Key Algorithm: rsaEncryption
                Public-Key: (1024 bit)
                Modulus:
                    00:c7:7b:10:4c:db:a0:55:cb:8d:9f:8e:cb:ba:80:
                    ba:1b:e3:72:9a:a5:32:50:5d:68:59:3c:5c:99:3e:
                    0c:05:e4:32:24:80:e8:bd:43:a4:50:29:df:71:c2:
                    0a:9d:8e:ca:c5:8f:59:1b:43:51:03:b8:69:1e:72:
                    0e:77:0e:e3:6d:8d:e4:97:6d:1c:41:8e:6c:2d:20:
                    42:21:67:8a:2e:b2:4c:85:e1:4a:6d:bd:72:57:18:
                    ce:83:b7:8d:03:a1:a6:f6:bf:8a:6b:e5:85:c1:e4:
                    a7:ae:d9:74:fa:0c:5a:7b:b7:d5:79:a0:14:a8:32:
                    de:b2:6d:dc:25:59:7d:20:ad
                Exponent: 65537 (0x10001)
        X509v3 extensions:
            X509v3 Basic Constraints: 
                CA:FALSE
            Netscape Cert Type: 
                SSL CA
            Netscape Comment: 
                OpenSSL Generated Certificate
            X509v3 Subject Key Identifier: 
                C2:01:4B:A6:56:B9:A3:67:20:25:FC:D3:A2:08:9F:A6:E8:79:B8:99
            X509v3 Authority Key Identifier: 
                keyid:C2:01:4B:A6:56:B9:A3:67:20:25:FC:D3:A2:08:9F:A6:E8:79:B8:99

    Signature Algorithm: sha1WithRSAEncryption
         5f:65:d6:20:70:0a:88:94:31:cc:f1:30:d0:44:91:be:c6:e5:
         77:c5:cb:ce:34:d6:7b:cd:f9:01:a7:44:50:5a:97:3d:17:2a:
         ea:1b:54:4a:84:13:47:10:9f:b7:e4:b1:0a:21:ea:ca:ed:e7:
         8b:0c:23:36:4d:67:8f:af:06:04:73:89:50:4a:41:8b:67:a6:
         d6:81:e9:18:5f:59:e5:bd:60:19:f1:93:8d:44:70:e0:92:ec:
         a4:d0:0a:fe:cf:9b:3d:35:0c:1c:e9:02:ae:c5:55:e2:07:00:
         87:6e:74:6a:da:60:1f:78:b4:7b:14:94:cd:28:fb:f4:3e:5e:
         10:6d
-----BEGIN CERTIFICATE-----
MIIC2zCCAkSgAwIBAgIJAPj0GBwG7zjkMA0GCSqGSIb3DQEBBQUAMFwxCzAJBgNV
BAYTAkFVMREwDwYDVQQIDAghZXhhbXBsZTERMA8GA1UECgwIIWV4YW1wbGUxETAP
BgNVBAsMCCFleGFtcGxlMRQwEgYDVQQDDAtleGFtcGxlLmNvbTAgFw0xNDAxMDcw
NTAwMzZaGA8zMDEzMDUxMDA1MDAzNlowbzELMAkGA1UEBhMCQVUxETAPBgNVBAgM
CCFleGFtcGxlMREwDwYDVQQHDAghZXhhbXBsZTERMA8GA1UECgwIIWV4YW1wbGUx
ETAPBgNVBAsMCCFleGFtcGxlMRQwEgYDVQQDDAtleGFtcGxlLmNvbTCBnzANBgkq
hkiG9w0BAQEFAAOBjQAwgYkCgYEAx3sQTNugVcuNn47LuoC6G+NymqUyUF1oWTxc
mT4MBeQyJIDovUOkUCnfccIKnY7KxY9ZG0NRA7hpHnIOdw7jbY3kl20cQY5sLSBC
IWeKLrJMheFKbb1yVxjOg7eNA6Gm9r+Ka+WFweSnrtl0+gxae7fVeaAUqDLesm3c
JVl9IK0CAwEAAaOBjzCBjDAJBgNVHRMEAjAAMBEGCWCGSAGG+EIBAQQEAwICBDAs
BglghkgBhvhCAQ0EHxYdT3BlblNTTCBHZW5lcmF0ZWQgQ2VydGlmaWNhdGUwHQYD
VR0OBBYEFMIBS6ZWuaNnICX806IIn6boebiZMB8GA1UdIwQYMBaAFMIBS6ZWuaNn
ICX806IIn6boebiZMA0GCSqGSIb3DQEBBQUAA4GBAF9l1iBwCoiUMczxMNBEkb7G
5XfFy8401nvN+QGnRFBalz0XKuobVEqEE0cQn7fksQoh6srt54sMIzZNZ4+vBgRz
iVBKQYtnptaB6RhfWeW9YBnxk41EcOCS7KTQCv7Pmz01DBzpAq7FVeIHAIdudGra
YB94tHsUlM0o+/Q+XhBt
-----END CERTIFICATE-----
