Certificate:
    Data:
        Version: 3 (0x2)
        Serial Number:
            f8:f4:18:1c:06:ef:38:e6
    Signature Algorithm: sha1WithRSAEncryption
        Issuer: C=AU, ST=!example, L=!example, O=!example, OU=!example, CN=example.com
        Validity
            Not Before: Jan  7 05:04:28 2014 GMT
            Not After : May 10 05:04:28 3013 GMT
        Subject: C=AU, ST=!example, L=!example, O=!example, OU=!example, CN=site.example.com
        Subject Public Key Info:
            Public Key Algorithm: rsaEncryption
                Public-Key: (1024 bit)
                Modulus:
                    00:a8:ee:77:b7:99:67:e1:76:20:d0:83:6a:fa:6e:
                    83:10:7b:cd:a4:2a:d3:19:4f:5e:5c:34:7a:0a:cb:
                    48:fb:67:8c:88:21:2c:1e:d9:eb:93:67:62:c8:c0:
                    a7:38:79:bc:dc:ac:b5:83:90:7b:fd:25:b8:08:77:
                    a8:f4:56:e9:94:79:09:71:31:0f:c9:d5:53:65:bf:
                    2f:42:cf:50:73:a3:5d:fa:b8:cf:dc:41:88:d7:94:
                    e6:cc:27:bf:40:1c:20:a4:5b:48:ec:2f:03:1e:c3:
                    9b:3d:74:f2:d0:ea:6b:0b:ac:f2:8f:ba:9b:c2:b1:
                    82:29:ce:b0:2f:43:f8:0b:0d
                Exponent: 65537 (0x10001)
        X509v3 extensions:
            X509v3 Basic Constraints: 
                CA:FALSE
            Netscape Cert Type: 
                SSL CA
            Netscape Comment: 
                OpenSSL Generated Certificate
            X509v3 Subject Key Identifier: 
                38:30:16:89:57:2A:B1:EC:4B:67:A5:5C:C6:16:7C:BF:EA:60:9E:5A
            X509v3 Authority Key Identifier: 
                keyid:C2:01:4B:A6:56:B9:A3:67:20:25:FC:D3:A2:08:9F:A6:E8:79:B8:99

    Signature Algorithm: sha1WithRSAEncryption
         a1:59:32:2d:7f:6c:71:f7:a1:98:3e:28:80:db:38:1a:58:17:
         49:e0:60:35:d1:84:81:85:05:5c:db:30:41:d6:aa:96:da:8e:
         9c:13:6c:ac:73:2f:73:fb:17:09:9c:9c:d2:e8:02:43:b0:8e:
         c0:b5:2c:b2:11:6a:78:76:91:3a:c0:ed:89:c8:9f:56:88:a2:
         59:f3:87:63:d2:56:87:dd:6b:c6:82:94:b4:09:f0:29:d6:fc:
         14:3c:4d:72:ed:c4:2b:75:2d:51:08:4f:0d:9f:5c:af:78:44:
         70:05:e2:41:8f:8f:5c:e4:8e:46:e7:16:99:21:1b:2c:b0:a9:
         e1:5e
-----BEGIN CERTIFICATE-----
MIIC8zCCAlygAwIBAgIJAPj0GBwG7zjmMA0GCSqGSIb3DQEBBQUAMG8xCzAJBgNV
BAYTAkFVMREwDwYDVQQIDAghZXhhbXBsZTERMA8GA1UEBwwIIWV4YW1wbGUxETAP
BgNVBAoMCCFleGFtcGxlMREwDwYDVQQLDAghZXhhbXBsZTEUMBIGA1UEAwwLZXhh
bXBsZS5jb20wIBcNMTQwMTA3MDUwNDI4WhgPMzAxMzA1MTAwNTA0MjhaMHQxCzAJ
BgNVBAYTAkFVMREwDwYDVQQIDAghZXhhbXBsZTERMA8GA1UEBwwIIWV4YW1wbGUx
ETAPBgNVBAoMCCFleGFtcGxlMREwDwYDVQQLDAghZXhhbXBsZTEZMBcGA1UEAwwQ
c2l0ZS5leGFtcGxlLmNvbTCBnzANBgkqhkiG9w0BAQEFAAOBjQAwgYkCgYEAqO53
t5ln4XYg0INq+m6DEHvNpCrTGU9eXDR6CstI+2eMiCEsHtnrk2diyMCnOHm83Ky1
g5B7/SW4CHeo9FbplHkJcTEPydVTZb8vQs9Qc6Nd+rjP3EGI15TmzCe/QBwgpFtI
7C8DHsObPXTy0OprC6zyj7qbwrGCKc6wL0P4Cw0CAwEAAaOBjzCBjDAJBgNVHRME
AjAAMBEGCWCGSAGG+EIBAQQEAwICBDAsBglghkgBhvhCAQ0EHxYdT3BlblNTTCBH
ZW5lcmF0ZWQgQ2VydGlmaWNhdGUwHQYDVR0OBBYEFDgwFolXKrHsS2elXMYWfL/q
YJ5aMB8GA1UdIwQYMBaAFMIBS6ZWuaNnICX806IIn6boebiZMA0GCSqGSIb3DQEB
BQUAA4GBAKFZMi1/bHH3oZg+KIDbOBpYF0ngYDXRhIGFBVzbMEHWqpbajpwTbKxz
L3P7FwmcnNLoAkOwjsC1LLIRanh2kTrA7YnIn1aIolnzh2PSVofda8aClLQJ8CnW
/BQ8TXLtxCt1LVEITw2fXK94RHAF4kGPj1zkjkbnFpkhGyywqeFe
-----END CERTIFICATE-----
